; Function Attrs: nounwind uwtable
define internal noundef ptr @builtin_any(ptr readnone captures(none) %0, ptr noundef %1) #0 {
  %3 = tail call ptr @PyObject_GetIter(ptr noundef %1) #9
  %4 = icmp eq ptr %3, null
  br i1 %4, label %Py_DECREF.exit21, label %5

5:                                                ; preds = %2
  %6 = getelementptr i8, ptr %3, i64 8
  %.val = load ptr, ptr %6, align 8, !tbaa !20
  %7 = getelementptr inbounds nuw i8, ptr %.val, i64 224
  %8 = load ptr, ptr %7, align 8, !tbaa !37
  br label %9

9:                                                ; preds = %26, %5
  %10 = tail call ptr %8(ptr noundef nonnull %3) #9
  %11 = icmp eq ptr %10, null
  br i1 %11, label %33, label %12

12:                                               ; preds = %9
  %13 = tail call i32 @PyObject_IsTrue(ptr noundef nonnull %10) #9
  %14 = load i32, ptr %10, align 8, !tbaa !33
  %.not.i22 = icmp sgt i32 %14, -1
  br i1 %.not.i22, label %15, label %Py_DECREF.exit23

15:                                               ; preds = %12
  %16 = add nsw i32 %14, -1
  store i32 %16, ptr %10, align 8, !tbaa !33
  %17 = icmp eq i32 %16, 0
  br i1 %17, label %18, label %Py_DECREF.exit23

18:                                               ; preds = %15
  tail call void @_Py_Dealloc(ptr noundef nonnull %10) #9
  br label %Py_DECREF.exit23

Py_DECREF.exit23:                                 ; preds = %12, %15, %18
  %19 = icmp slt i32 %13, 0
  br i1 %19, label %20, label %26

20:                                               ; preds = %Py_DECREF.exit23
  %21 = load i32, ptr %3, align 8, !tbaa !33
  %.not.i20 = icmp sgt i32 %21, -1
  br i1 %.not.i20, label %22, label %Py_DECREF.exit21

22:                                               ; preds = %20
  %23 = add nsw i32 %21, -1
  store i32 %23, ptr %3, align 8, !tbaa !33
  %24 = icmp eq i32 %23, 0
  br i1 %24, label %25, label %Py_DECREF.exit21

25:                                               ; preds = %22
  tail call void @_Py_Dealloc(ptr noundef nonnull %3) #9
  br label %Py_DECREF.exit21

26:                                               ; preds = %Py_DECREF.exit23
  %.not = icmp eq i32 %13, 0
  br i1 %.not, label %9, label %27

27:                                               ; preds = %26
  %28 = load i32, ptr %3, align 8, !tbaa !33
  %.not.i18 = icmp sgt i32 %28, -1
  br i1 %.not.i18, label %29, label %Py_DECREF.exit21

29:                                               ; preds = %27
  %30 = add nsw i32 %28, -1
  store i32 %30, ptr %3, align 8, !tbaa !33
  %31 = icmp eq i32 %30, 0
  br i1 %31, label %32, label %Py_DECREF.exit21

32:                                               ; preds = %29
  tail call void @_Py_Dealloc(ptr noundef nonnull %3) #9
  br label %Py_DECREF.exit21

33:                                               ; preds = %9
  %34 = load i32, ptr %3, align 8, !tbaa !33
  %.not.i = icmp sgt i32 %34, -1
  br i1 %.not.i, label %35, label %Py_DECREF.exit

35:                                               ; preds = %33
  %36 = add nsw i32 %34, -1
  store i32 %36, ptr %3, align 8, !tbaa !33
  %37 = icmp eq i32 %36, 0
  br i1 %37, label %38, label %Py_DECREF.exit

38:                                               ; preds = %35
  tail call void @_Py_Dealloc(ptr noundef nonnull %3) #9
  br label %Py_DECREF.exit

Py_DECREF.exit:                                   ; preds = %33, %35, %38
  %39 = tail call ptr @PyErr_Occurred() #9
  %.not16 = icmp eq ptr %39, null
  br i1 %.not16, label %Py_DECREF.exit21, label %40

40:                                               ; preds = %Py_DECREF.exit
  %41 = load ptr, ptr @PyExc_StopIteration, align 8, !tbaa !39
  %42 = tail call i32 @PyErr_ExceptionMatches(ptr noundef %41) #9
  %.not17 = icmp eq i32 %42, 0
  br i1 %.not17, label %Py_DECREF.exit21, label %43

43:                                               ; preds = %40
  tail call void @PyErr_Clear() #9
  br label %Py_DECREF.exit21

Py_DECREF.exit21:                                 ; preds = %32, %29, %27, %25, %22, %20, %Py_DECREF.exit, %43, %40, %2
  %.0 = phi ptr [ null, %2 ], [ null, %40 ], [ @_Py_FalseStruct, %43 ], [ @_Py_FalseStruct, %Py_DECREF.exit ], [ null, %20 ], [ null, %22 ], [ null, %25 ], [ @_Py_TrueStruct, %27 ], [ @_Py_TrueStruct, %29 ], [ @_Py_TrueStruct, %32 ]
  ret ptr %.0
}